(dp1
S'start_state'
p2
S'flip_down'
p3
sS'state_names'
p4
(lp5
S'preempted0'
p6
aS'preempted1'
p7
aS'preempted2'
p8
aS'preempted3'
p9
aS'aborted0'
p10
aS'flip_down'
p11
aS'timed_out2'
p12
aS'timed_out0'
p13
aS'tuck0'
p14
aS'position_priority0'
p15
aS'goal_not_reached0'
p16
aS'goal_not_reached2'
p17
aS'succeeded2'
p18
aS'succeeded1'
p19
aS'retreat'
p20
as.