(dp1
S'start_state'
p2
S'freeze_frame0'
p3
sS'state_names'
p4
(lp5
S'turn_off_approach'
p6
aS'preempted0'
p7
aS'preempted1'
p8
aS'preempted2'
p9
aS'turn_off_retreat'
p10
aS'move_spine_up'
p11
aS'succeeded0'
p12
aS'goal_not_reached1'
p13
aS'turn_off_push'
p14
aS'freeze_frame0'
p15
aS'timed_out0'
p16
aS'timed_out1'
p17
aS'retreat_far'
p18
as.