(dp1
S'start_state'
p2
S'freeze_frame0'
p3
sS'state_names'
p4
(lp5
S'turn_off_approach'
p6
aS'preempted0'
p7
aS'preempted1'
p8
aS'turn_off_retreat'
p9
aS'succeeded0'
p10
aS'goal_not_reached1'
p11
aS'turn_off_push'
p12
aS'freeze_frame0'
p13
aS'timed_out0'
p14
aS'timed_out1'
p15
aS'retreat_far'
p16
as.