(dp1
S'start_state'
p2
S'freeze_frame0'
p3
sS'state_names'
p4
(lp5
S'aborted0'
p6
aS'preempted0'
p7
aS'turn_on_approach'
p8
aS'move_spine_up'
p9
aS'turn_on_push'
p10
aS'succeeded0'
p11
aS'goal_not_reached1'
p12
aS'freeze_frame0'
p13
aS'timed_out0'
p14
aS'timed_out1'
p15
aS'turn_on_retreat'
p16
aS'retreat_far'
p17
aS'preempted1'
p18
as.