(dp1
S'start_state'
p2
S'freeze_frame0'
p3
sS'state_names'
p4
(lp5
S'preempted0'
p6
aS'preempted1'
p7
aS'turn_on_approach'
p8
aS'turn_on_push'
p9
aS'succeeded0'
p10
aS'goal_not_reached1'
p11
aS'freeze_frame0'
p12
aS'timed_out0'
p13
aS'timed_out1'
p14
aS'retreat_far'
p15
aS'turn_on_retreat'
p16
as.